target datalayout = "e-m:e-p270:32:32-p271:32:32-p272:64:64-i64:64-i128:128-f80:128-n8:16:32:64-S128"
target triple = "x86_64-pc-linux-gnu"

@.str.6 = private unnamed_addr constant [2 x i8] c"w\00", align 1
@.str.7 = private unnamed_addr constant [2 x i8] c"r\00", align 1

; Function Attrs: mustprogress uwtable
define dso_local noundef i32 @_ZN25cmGeneratedFileStreamBase12CompressFileERKNSt7__cxx1112basic_stringIcSt11char_traitsIcESaIcEEES7_(ptr noundef nonnull align 8 dereferenceable(100) %0, ptr noundef nonnull align 8 dereferenceable(32) %1, ptr noundef nonnull align 8 dereferenceable(32) %2) #4 align 2 {
  %4 = alloca i32, align 4
  %5 = alloca ptr, align 8
  %6 = alloca ptr, align 8
  %7 = alloca ptr, align 8
  %8 = alloca ptr, align 8
  %9 = alloca ptr, align 8
  %10 = alloca i64, align 8
  %11 = alloca i64, align 8
  %12 = alloca [1024 x i8], align 16
  store ptr %0, ptr %5, align 8
  store ptr %1, ptr %6, align 8
  store ptr %2, ptr %7, align 8
  %13 = load ptr, ptr %7, align 8
  %14 = call noundef ptr @_ZNKSt7__cxx1112basic_stringIcSt11char_traitsIcESaIcEE5c_strEv(ptr noundef nonnull align 8 dereferenceable(32) %13) #3
  %15 = call ptr @cm_zlib_gzopen(ptr noundef %14, ptr noundef @.str.6)
  store ptr %15, ptr %8, align 8
  %16 = load ptr, ptr %8, align 8
  %17 = icmp ne ptr %16, null
  br i1 %17, label %19, label %18

18:                                               ; preds = %3
  store i32 0, ptr %4, align 4
  br label %51

19:                                               ; preds = %3
  %20 = load ptr, ptr %6, align 8
  %21 = call noundef ptr @_ZN5cmsys11SystemTools5FopenERKNSt7__cxx1112basic_stringIcSt11char_traitsIcESaIcEEEPKc(ptr noundef nonnull align 8 dereferenceable(32) %20, ptr noundef @.str.7)
  store ptr %21, ptr %9, align 8
  %22 = load ptr, ptr %9, align 8
  %23 = icmp ne ptr %22, null
  br i1 %23, label %27, label %24

24:                                               ; preds = %19
  %25 = load ptr, ptr %8, align 8
  %26 = call i32 @cm_zlib_gzclose(ptr noundef %25)
  store i32 0, ptr %4, align 4
  br label %51

27:                                               ; preds = %19
  store i64 1024, ptr %11, align 8
  br label %28

28:                                               ; preds = %45, %27
  %29 = getelementptr inbounds [1024 x i8], ptr %12, i64 0, i64 0
  %30 = load ptr, ptr %9, align 8
  %31 = call i64 @fread(ptr noundef %29, i64 noundef 1, i64 noundef 1024, ptr noundef %30)
  store i64 %31, ptr %10, align 8
  %32 = icmp ugt i64 %31, 0
  br i1 %32, label %33, label %46

33:                                               ; preds = %28
  %34 = load ptr, ptr %8, align 8
  %35 = getelementptr inbounds [1024 x i8], ptr %12, i64 0, i64 0
  %36 = load i64, ptr %10, align 8
  %37 = trunc i64 %36 to i32
  %38 = call i32 @cm_zlib_gzwrite(ptr noundef %34, ptr noundef %35, i32 noundef %37)
  %39 = icmp ne i32 %38, 0
  br i1 %39, label %45, label %40

40:                                               ; preds = %33
  %41 = load ptr, ptr %9, align 8
  %42 = call i32 @fclose(ptr noundef %41)
  %43 = load ptr, ptr %8, align 8
  %44 = call i32 @cm_zlib_gzclose(ptr noundef %43)
  store i32 0, ptr %4, align 4
  br label %51

45:                                               ; preds = %33
  br label %28, !llvm.loop !5

46:                                               ; preds = %28
  %47 = load ptr, ptr %9, align 8
  %48 = call i32 @fclose(ptr noundef %47)
  %49 = load ptr, ptr %8, align 8
  %50 = call i32 @cm_zlib_gzclose(ptr noundef %49)
  store i32 1, ptr %4, align 4
  br label %51

51:                                               ; preds = %46, %40, %24, %18
  %52 = load i32, ptr %4, align 4
  ret i32 %52
}