; Function Attrs: mustprogress uwtable
define dso_local noundef i32 @_ZN25cmGeneratedFileStreamBase12CompressFileERKNSt7__cxx1112basic_stringIcSt11char_traitsIcESaIcEEES7_(ptr nocapture nonnull readnone align 8 %0, ptr noundef nonnull align 8 dereferenceable(32) %1, ptr noundef nonnull align 8 dereferenceable(32) %2) local_unnamed_addr #3 align 2 {
  %4 = alloca [1024 x i8], align 16
  %5 = tail call noundef ptr @_ZNKSt7__cxx1112basic_stringIcSt11char_traitsIcESaIcEE5c_strEv(ptr noundef nonnull align 8 dereferenceable(32) %2) #15
  %6 = tail call ptr @cm_zlib_gzopen(ptr noundef %5, ptr noundef nonnull @.str.6)
  %.not = icmp eq ptr %6, null
  br i1 %.not, label %21, label %7

7:                                                ; preds = %3
  %8 = tail call noundef ptr @_ZN5cmsys11SystemTools5FopenERKNSt7__cxx1112basic_stringIcSt11char_traitsIcESaIcEEEPKc(ptr noundef nonnull align 8 dereferenceable(32) %1, ptr noundef nonnull @.str.7)
  %.not15 = icmp eq ptr %8, null
  br i1 %.not15, label %9, label %.preheader

9:                                                ; preds = %7
  %10 = tail call i32 @cm_zlib_gzclose(ptr noundef nonnull %6)
  br label %21

.preheader:                                       ; preds = %7, %12
  %11 = call i64 @fread(ptr noundef nonnull %4, i64 noundef 1, i64 noundef 1024, ptr noundef nonnull %8)
  %.not16 = icmp eq i64 %11, 0
  br i1 %.not16, label %18, label %12

12:                                               ; preds = %.preheader
  %13 = trunc i64 %11 to i32
  %14 = call i32 @cm_zlib_gzwrite(ptr noundef nonnull %6, ptr noundef nonnull %4, i32 noundef %13)
  %.not17 = icmp eq i32 %14, 0
  br i1 %.not17, label %15, label %.preheader, !llvm.loop !15

15:                                               ; preds = %12
  %16 = call i32 @fclose(ptr noundef nonnull %8)
  %17 = call i32 @cm_zlib_gzclose(ptr noundef nonnull %6)
  br label %21

18:                                               ; preds = %.preheader
  %19 = call i32 @fclose(ptr noundef nonnull %8)
  %20 = call i32 @cm_zlib_gzclose(ptr noundef nonnull %6)
  br label %21

21:                                               ; preds = %3, %18, %15, %9
  %.0 = phi i32 [ 0, %15 ], [ 1, %18 ], [ 0, %9 ], [ 0, %3 ]
  ret i32 %.0
}